; ModuleID = '34/2697.c'
source_filename = "34/2697.c"
target datalayout = "e-m:e-p270:32:32-p271:32:32-p272:64:64-i64:64-f80:128-n8:16:32:64-S128"
target triple = "x86_64-pc-linux-gnu"

@.str = private unnamed_addr constant [11 x i8] c"%d*3+1=%d\0A\00", align 1
@.str.1 = private unnamed_addr constant [9 x i8] c"%d/2=%d\0A\00", align 1
@.str.2 = private unnamed_addr constant [3 x i8] c"%d\00", align 1
@.str.3 = private unnamed_addr constant [4 x i8] c"End\00", align 1

; Function Attrs: noinline nounwind uwtable
define dso_local i32 @fun1(i32 %0) #0 {
  %2 = alloca i32, align 4
  %3 = alloca i32, align 4
  store i32 %0, i32* %2, align 4
  %4 = load i32, i32* %2, align 4
  %5 = mul nsw i32 %4, 3
  %6 = add nsw i32 %5, 1
  store i32 %6, i32* %3, align 4
  %7 = load i32, i32* %2, align 4
  %8 = load i32, i32* %3, align 4
  %9 = call i32 (i8*, ...) @printf(i8* getelementptr inbounds ([11 x i8], [11 x i8]* @.str, i64 0, i64 0), i32 %7, i32 %8)
  %10 = load i32, i32* %3, align 4
  ret i32 %10
}

declare dso_local i32 @printf(i8*, ...) #1

; Function Attrs: noinline nounwind uwtable
define dso_local i32 @fun2(i32 %0) #0 {
  %2 = alloca i32, align 4
  %3 = alloca i32, align 4
  store i32 %0, i32* %2, align 4
  %4 = load i32, i32* %2, align 4
  %5 = sdiv i32 %4, 2
  store i32 %5, i32* %3, align 4
  %6 = load i32, i32* %2, align 4
  %7 = load i32, i32* %3, align 4
  %8 = call i32 (i8*, ...) @printf(i8* getelementptr inbounds ([9 x i8], [9 x i8]* @.str.1, i64 0, i64 0), i32 %6, i32 %7)
  %9 = load i32, i32* %3, align 4
  ret i32 %9
}

; Function Attrs: noinline nounwind uwtable
define dso_local i32 @main() #0 {
  %1 = alloca i32, align 4
  %2 = alloca i32, align 4
  store i32 0, i32* %1, align 4
  %3 = call i32 (i8*, ...) @__isoc99_scanf(i8* getelementptr inbounds ([3 x i8], [3 x i8]* @.str.2, i64 0, i64 0), i32* %2)
  br label %4

4:                                                ; preds = %23, %0
  %5 = load i32, i32* %2, align 4
  %6 = srem i32 %5, 2
  %7 = icmp eq i32 %6, 1
  br i1 %7, label %8, label %14

8:                                                ; preds = %4
  %9 = load i32, i32* %2, align 4
  %10 = icmp ne i32 %9, 1
  br i1 %10, label %11, label %14

11:                                               ; preds = %8
  %12 = load i32, i32* %2, align 4
  %13 = call i32 @fun1(i32 %12)
  store i32 %13, i32* %2, align 4
  br label %22

14:                                               ; preds = %8, %4
  %15 = load i32, i32* %2, align 4
  %16 = srem i32 %15, 2
  %17 = icmp eq i32 %16, 0
  br i1 %17, label %18, label %21

18:                                               ; preds = %14
  %19 = load i32, i32* %2, align 4
  %20 = call i32 @fun2(i32 %19)
  store i32 %20, i32* %2, align 4
  br label %21

21:                                               ; preds = %18, %14
  br label %22

22:                                               ; preds = %21, %11
  br label %23

23:                                               ; preds = %22
  %24 = load i32, i32* %2, align 4
  %25 = icmp ne i32 %24, 1
  br i1 %25, label %4, label %26

26:                                               ; preds = %23
  %27 = call i32 (i8*, ...) @printf(i8* getelementptr inbounds ([4 x i8], [4 x i8]* @.str.3, i64 0, i64 0))
  ret i32 0
}

declare dso_local i32 @__isoc99_scanf(i8*, ...) #1


!llvm.module.flags = !{!0}
!llvm.ident = !{!1}

!0 = !{i32 1, !"wchar_size", i32 4}
!1 = !{!"clang version 10.0.0-4ubuntu1 "}
