; ModuleID = 'source-C-CXX/33/2697.c'
source_filename = "source-C-CXX/33/2697.c"
target datalayout = "e-m:e-p270:32:32-p271:32:32-p272:64:64-i64:64-f80:128-n8:16:32:64-S128"
target triple = "x86_64-pc-linux-gnu"

@.str = private unnamed_addr constant [11 x i8] c"%d*3+1=%d\0A\00", align 1
@.str.1 = private unnamed_addr constant [9 x i8] c"%d/2=%d\0A\00", align 1
@.str.2 = private unnamed_addr constant [3 x i8] c"%d\00", align 1
@.str.3 = private unnamed_addr constant [4 x i8] c"End\00", align 1

; Function Attrs: nofree nounwind sspstrong uwtable
define dso_local i32 @fun1(i32 %0) local_unnamed_addr #0 {
  %2 = mul nsw i32 %0, 3
  %3 = add nsw i32 %2, 1
  %4 = tail call i32 (i8*, ...) @printf(i8* nonnull dereferenceable(1) getelementptr inbounds ([11 x i8], [11 x i8]* @.str, i64 0, i64 0), i32 %0, i32 %3)
  ret i32 %3
}

; Function Attrs: argmemonly mustprogress nofree nosync nounwind willreturn
declare void @llvm.lifetime.start.p0i8(i64 immarg, i8* nocapture) #1

; Function Attrs: nofree nounwind
declare noundef i32 @printf(i8* nocapture noundef readonly, ...) local_unnamed_addr #2

; Function Attrs: argmemonly mustprogress nofree nosync nounwind willreturn
declare void @llvm.lifetime.end.p0i8(i64 immarg, i8* nocapture) #1

; Function Attrs: nofree nounwind sspstrong uwtable
define dso_local i32 @fun2(i32 %0) local_unnamed_addr #0 {
  %2 = sdiv i32 %0, 2
  %3 = tail call i32 (i8*, ...) @printf(i8* nonnull dereferenceable(1) getelementptr inbounds ([9 x i8], [9 x i8]* @.str.1, i64 0, i64 0), i32 %0, i32 %2)
  ret i32 %2
}

; Function Attrs: nofree nounwind sspstrong uwtable
define dso_local i32 @main() local_unnamed_addr #0 {
  %1 = alloca i32, align 4
  %2 = bitcast i32* %1 to i8*
  call void @llvm.lifetime.start.p0i8(i64 4, i8* nonnull %2) #3
  %3 = call i32 (i8*, ...) @__isoc99_scanf(i8* getelementptr inbounds ([3 x i8], [3 x i8]* @.str.2, i64 0, i64 0), i32* nonnull %1)
  %4 = load i32, i32* %1, align 4, !tbaa !5
  br label %5

5:                                                ; preds = %20, %0
  %6 = phi i32 [ %21, %20 ], [ %4, %0 ]
  %7 = srem i32 %6, 2
  %8 = sdiv i32 %6, 2
  %9 = icmp eq i32 %7, 1
  %10 = icmp ne i32 %6, 1
  %11 = and i1 %10, %9
  br i1 %11, label %12, label %16

12:                                               ; preds = %5
  %13 = mul nsw i32 %6, 3
  %14 = add nsw i32 %13, 1
  %15 = call i32 (i8*, ...) @printf(i8* nonnull dereferenceable(1) getelementptr inbounds ([11 x i8], [11 x i8]* @.str, i64 0, i64 0), i32 %6, i32 %14) #3
  store i32 %14, i32* %1, align 4, !tbaa !5
  br label %20

16:                                               ; preds = %5
  %17 = icmp eq i32 %7, 0
  br i1 %17, label %18, label %20

18:                                               ; preds = %16
  %19 = call i32 (i8*, ...) @printf(i8* nonnull dereferenceable(1) getelementptr inbounds ([9 x i8], [9 x i8]* @.str.1, i64 0, i64 0), i32 %6, i32 %8) #3
  store i32 %8, i32* %1, align 4, !tbaa !5
  br label %20

20:                                               ; preds = %16, %12, %18
  %21 = phi i32 [ %14, %12 ], [ %8, %18 ], [ %6, %16 ]
  %22 = icmp eq i32 %21, 1
  br i1 %22, label %23, label %5, !llvm.loop !9

23:                                               ; preds = %20
  %24 = call i32 (i8*, ...) @printf(i8* nonnull dereferenceable(1) getelementptr inbounds ([4 x i8], [4 x i8]* @.str.3, i64 0, i64 0))
  call void @llvm.lifetime.end.p0i8(i64 4, i8* nonnull %2) #3
  ret i32 0
}

; Function Attrs: nofree nounwind
declare noundef i32 @__isoc99_scanf(i8* nocapture noundef readonly, ...) local_unnamed_addr #2


!llvm.module.flags = !{!0, !1, !2, !3}
!llvm.ident = !{!4}

!0 = !{i32 1, !"wchar_size", i32 4}
!1 = !{i32 7, !"PIC Level", i32 2}
!2 = !{i32 7, !"PIE Level", i32 2}
!3 = !{i32 7, !"uwtable", i32 1}
!4 = !{!"clang version 13.0.0"}
!5 = !{!6, !6, i64 0}
!6 = !{!"int", !7, i64 0}
!7 = !{!"omnipotent char", !8, i64 0}
!8 = !{!"Simple C/C++ TBAA"}
!9 = distinct !{!9, !10}
!10 = !{!"llvm.loop.mustprogress"}
